target datalayout = "e-m:e-p270:32:32-p271:32:32-p272:64:64-i64:64-i128:128-f80:128-n8:16:32:64-S128"
target triple = "x86_64-pc-linux-gnu"

; Function Attrs: nounwind uwtable
define dso_local i32 @time_test() #0 {
  %1 = alloca i32, align 4
  %2 = alloca i64, align 8
  %3 = alloca i32, align 4
  %4 = alloca i32, align 4
  call void @llvm.lifetime.start.p0(i64 8, ptr %2) #10
  call void @llvm.lifetime.start.p0(i64 4, ptr %3) #10
  br label %5

5:                                                ; preds = %0
  br label %6

6:                                                ; preds = %5
  br label %7

7:                                                ; preds = %6
  %8 = call i32 @wc_SetTimeCb(ptr noundef @time_cb)
  store i32 %8, ptr %3, align 4, !tbaa !14
  %9 = load i32, ptr %3, align 4, !tbaa !14
  %10 = icmp ne i32 %9, 0
  br i1 %10, label %11, label %23

11:                                               ; preds = %7
  %12 = load i32, ptr %3, align 4, !tbaa !14
  %13 = sub nsw i32 0, %12
  %14 = zext i32 %13 to i64
  %15 = and i64 %14, 2047
  %16 = trunc i64 %15 to i32
  %17 = sext i32 %16 to i64
  %18 = mul nsw i64 %17, 100000
  %19 = add nsw i64 59990, %18
  %20 = add nsw i64 %19, 536870912
  %21 = sub nsw i64 0, %20
  %22 = trunc i64 %21 to i32
  store i32 %22, ptr %1, align 4
  store i32 1, ptr %4, align 4
  br label %65

23:                                               ; preds = %7
  %24 = call i64 @wc_Time(ptr noundef null)
  store i64 %24, ptr %2, align 8, !tbaa !28
  %25 = load i64, ptr %2, align 8, !tbaa !28
  %26 = icmp ne i64 %25, 99
  br i1 %26, label %27, label %28

27:                                               ; preds = %23
  store i32 -59993, ptr %1, align 4
  store i32 1, ptr %4, align 4
  br label %65

28:                                               ; preds = %23
  %29 = call i32 @wc_GetTime(ptr noundef %2, i32 noundef 8)
  store i32 %29, ptr %3, align 4, !tbaa !14
  %30 = load i32, ptr %3, align 4, !tbaa !14
  %31 = icmp ne i32 %30, 0
  br i1 %31, label %32, label %44

32:                                               ; preds = %28
  %33 = load i32, ptr %3, align 4, !tbaa !14
  %34 = sub nsw i32 0, %33
  %35 = zext i32 %34 to i64
  %36 = and i64 %35, 2047
  %37 = trunc i64 %36 to i32
  %38 = sext i32 %37 to i64
  %39 = mul nsw i64 %38, 100000
  %40 = add nsw i64 59996, %39
  %41 = add nsw i64 %40, 536870912
  %42 = sub nsw i64 0, %41
  %43 = trunc i64 %42 to i32
  store i32 %43, ptr %1, align 4
  store i32 1, ptr %4, align 4
  br label %65

44:                                               ; preds = %28
  %45 = load i64, ptr %2, align 8, !tbaa !28
  %46 = icmp ne i64 %45, 99
  br i1 %46, label %47, label %48

47:                                               ; preds = %44
  store i32 -59998, ptr %1, align 4
  store i32 1, ptr %4, align 4
  br label %65

48:                                               ; preds = %44
  %49 = call i32 @wc_SetTimeCb(ptr noundef null)
  store i32 %49, ptr %3, align 4, !tbaa !14
  %50 = load i32, ptr %3, align 4, !tbaa !14
  %51 = icmp ne i32 %50, 0
  br i1 %51, label %52, label %64

52:                                               ; preds = %48
  %53 = load i32, ptr %3, align 4, !tbaa !14
  %54 = sub nsw i32 0, %53
  %55 = zext i32 %54 to i64
  %56 = and i64 %55, 2047
  %57 = trunc i64 %56 to i32
  %58 = sext i32 %57 to i64
  %59 = mul nsw i64 %58, 100000
  %60 = add nsw i64 60001, %59
  %61 = add nsw i64 %60, 536870912
  %62 = sub nsw i64 0, %61
  %63 = trunc i64 %62 to i32
  store i32 %63, ptr %1, align 4
  store i32 1, ptr %4, align 4
  br label %65

64:                                               ; preds = %48
  store i32 0, ptr %1, align 4
  store i32 1, ptr %4, align 4
  br label %65

65:                                               ; preds = %64, %52, %47, %32, %27, %11
  call void @llvm.lifetime.end.p0(i64 4, ptr %3) #10
  call void @llvm.lifetime.end.p0(i64 8, ptr %2) #10
  %66 = load i32, ptr %1, align 4
  ret i32 %66
}