; Function Attrs: nounwind uwtable
define dso_local range(i32 -741630913, 1) i32 @time_test() local_unnamed_addr #0 {
  %1 = alloca i64, align 8
  call void @llvm.lifetime.start.p0(i64 8, ptr nonnull %1) #19
  %2 = tail call i32 @wc_SetTimeCb(ptr noundef nonnull @time_cb) #19
  %.not = icmp eq i32 %2, 0
  br i1 %.not, label %7, label %3

3:                                                ; preds = %0
  %4 = sub nsw i32 0, %2
  %5 = and i32 %4, 2047
  %narrow.neg21 = mul nsw i32 %5, -100000
  %6 = add nsw i32 %narrow.neg21, -536930902
  br label %23

7:                                                ; preds = %0
  %8 = tail call i64 @wc_Time(ptr noundef null) #19
  store i64 %8, ptr %1, align 8, !tbaa !27
  %.not10 = icmp eq i64 %8, 99
  br i1 %.not10, label %9, label %23

9:                                                ; preds = %7
  %10 = call i32 @wc_GetTime(ptr noundef nonnull %1, i32 noundef 8) #19
  %.not11 = icmp eq i32 %10, 0
  br i1 %.not11, label %15, label %11

11:                                               ; preds = %9
  %12 = sub nsw i32 0, %10
  %13 = and i32 %12, 2047
  %narrow.neg18 = mul nsw i32 %13, -100000
  %14 = add nsw i32 %narrow.neg18, -536930908
  br label %23

15:                                               ; preds = %9
  %16 = load i64, ptr %1, align 8, !tbaa !27
  %.not12 = icmp eq i64 %16, 99
  br i1 %.not12, label %17, label %23

17:                                               ; preds = %15
  %18 = call i32 @wc_SetTimeCb(ptr noundef null) #19
  %.not13 = icmp eq i32 %18, 0
  br i1 %.not13, label %23, label %19

19:                                               ; preds = %17
  %20 = sub nsw i32 0, %18
  %21 = and i32 %20, 2047
  %narrow.neg = mul nsw i32 %21, -100000
  %22 = add nsw i32 %narrow.neg, -536930913
  br label %23

23:                                               ; preds = %17, %15, %7, %19, %11, %3
  %.0 = phi i32 [ %6, %3 ], [ %14, %11 ], [ %22, %19 ], [ -59993, %7 ], [ -59998, %15 ], [ 0, %17 ]
  call void @llvm.lifetime.end.p0(i64 8, ptr nonnull %1) #19
  ret i32 %.0
}